; Function Attrs: mustprogress nofree norecurse nosync nounwind willreturn memory(argmem: read) uwtable
define noundef range(i64 -288230376151711744, 288230376151711744) i64 @_ZNK8QuantLib4Pool4sizeEv(ptr nocapture noundef nonnull readonly align 8 dereferenceable(168) %this) local_unnamed_addr #4 align 2 {
entry:
  %names_ = getelementptr inbounds nuw i8, ptr %this, i64 96
  %_M_finish.i = getelementptr inbounds nuw i8, ptr %this, i64 104
  %0 = load ptr, ptr %_M_finish.i, align 8, !tbaa !17
  %1 = load ptr, ptr %names_, align 8, !tbaa !15
  %sub.ptr.lhs.cast.i = ptrtoint ptr %0 to i64
  %sub.ptr.rhs.cast.i = ptrtoint ptr %1 to i64
  %sub.ptr.sub.i = sub i64 %sub.ptr.lhs.cast.i, %sub.ptr.rhs.cast.i
  %sub.ptr.div.i = ashr exact i64 %sub.ptr.sub.i, 5
  ret i64 %sub.ptr.div.i
}